target datalayout = "e-m:e-p270:32:32-p271:32:32-p272:64:64-i64:64-i128:128-f80:128-n8:16:32:64-S128"
target triple = "x86_64-pc-linux-gnu"

%struct._lv_fpoint_t = type { float, float }
%struct._lv_freetype_outline_event_param_t = type { ptr, i32, %struct._lv_freetype_outline_vector_t, %struct._lv_freetype_outline_vector_t, %struct._lv_freetype_outline_vector_t }
%struct._lv_freetype_outline_vector_t = type { i32, i32 }

; Function Attrs: nounwind uwtable
define internal void @_freetype_outline_cb(ptr noundef %0) #0 {
  %2 = alloca ptr, align 8
  %3 = alloca i32, align 4
  %4 = alloca ptr, align 8
  %5 = alloca %struct._lv_fpoint_t, align 4
  %6 = alloca %struct._lv_fpoint_t, align 4
  %7 = alloca [3 x %struct._lv_fpoint_t], align 16
  %8 = alloca [2 x %struct._lv_fpoint_t], align 16
  store ptr %0, ptr %2, align 8, !tbaa !3
  call void @llvm.lifetime.start.p0(i64 4, ptr %3) #8
  %9 = load ptr, ptr %2, align 8, !tbaa !3
  %10 = call i32 @lv_event_get_code(ptr noundef %9)
  store i32 %10, ptr %3, align 4, !tbaa !8
  call void @llvm.lifetime.start.p0(i64 8, ptr %4) #8
  %11 = load ptr, ptr %2, align 8, !tbaa !3
  %12 = call ptr @lv_event_get_param(ptr noundef %11)
  store ptr %12, ptr %4, align 8, !tbaa !3
  %13 = load i32, ptr %3, align 4, !tbaa !8
  switch i32 %13, label %192 [
    i32 40, label %14
    i32 41, label %18
    i32 36, label %22
  ]

14:                                               ; preds = %1
  %15 = call ptr @lv_vector_path_create(i32 noundef 0)
  %16 = load ptr, ptr %4, align 8, !tbaa !3
  %17 = getelementptr inbounds nuw %struct._lv_freetype_outline_event_param_t, ptr %16, i32 0, i32 0
  store ptr %15, ptr %17, align 8, !tbaa !10
  br label %196

18:                                               ; preds = %1
  %19 = load ptr, ptr %4, align 8, !tbaa !3
  %20 = getelementptr inbounds nuw %struct._lv_freetype_outline_event_param_t, ptr %19, i32 0, i32 0
  %21 = load ptr, ptr %20, align 8, !tbaa !10
  call void @lv_vector_path_delete(ptr noundef %21)
  br label %196

22:                                               ; preds = %1
  %23 = load ptr, ptr %4, align 8, !tbaa !3
  %24 = getelementptr inbounds nuw %struct._lv_freetype_outline_event_param_t, ptr %23, i32 0, i32 1
  %25 = load i32, ptr %24, align 8, !tbaa !13
  %26 = icmp eq i32 %25, 1
  br i1 %26, label %27, label %46

27:                                               ; preds = %22
  call void @llvm.lifetime.start.p0(i64 8, ptr %5) #8
  call void @llvm.memset.p0.i64(ptr align 4 %5, i8 0, i64 8, i1 false)
  %28 = load ptr, ptr %4, align 8, !tbaa !3
  %29 = getelementptr inbounds nuw %struct._lv_freetype_outline_event_param_t, ptr %28, i32 0, i32 2
  %30 = getelementptr inbounds nuw %struct._lv_freetype_outline_vector_t, ptr %29, i32 0, i32 0
  %31 = load i32, ptr %30, align 4, !tbaa !14
  %32 = sitofp i32 %31 to float
  %33 = fdiv float %32, 6.400000e+01
  %34 = getelementptr inbounds nuw %struct._lv_fpoint_t, ptr %5, i32 0, i32 0
  store float %33, ptr %34, align 4, !tbaa !15
  %35 = load ptr, ptr %4, align 8, !tbaa !3
  %36 = getelementptr inbounds nuw %struct._lv_freetype_outline_event_param_t, ptr %35, i32 0, i32 2
  %37 = getelementptr inbounds nuw %struct._lv_freetype_outline_vector_t, ptr %36, i32 0, i32 1
  %38 = load i32, ptr %37, align 4, !tbaa !18
  %39 = sitofp i32 %38 to float
  %40 = fdiv float %39, 6.400000e+01
  %41 = fneg float %40
  %42 = getelementptr inbounds nuw %struct._lv_fpoint_t, ptr %5, i32 0, i32 1
  store float %41, ptr %42, align 4, !tbaa !19
  %43 = load ptr, ptr %4, align 8, !tbaa !3
  %44 = getelementptr inbounds nuw %struct._lv_freetype_outline_event_param_t, ptr %43, i32 0, i32 0
  %45 = load ptr, ptr %44, align 8, !tbaa !10
  call void @lv_vector_path_move_to(ptr noundef %45, ptr noundef %5)
  call void @llvm.lifetime.end.p0(i64 8, ptr %5) #8
  br label %191

46:                                               ; preds = %22
  %47 = load ptr, ptr %4, align 8, !tbaa !3
  %48 = getelementptr inbounds nuw %struct._lv_freetype_outline_event_param_t, ptr %47, i32 0, i32 1
  %49 = load i32, ptr %48, align 8, !tbaa !13
  %50 = icmp eq i32 %49, 2
  br i1 %50, label %51, label %70

51:                                               ; preds = %46
  call void @llvm.lifetime.start.p0(i64 8, ptr %6) #8
  call void @llvm.memset.p0.i64(ptr align 4 %6, i8 0, i64 8, i1 false)
  %52 = load ptr, ptr %4, align 8, !tbaa !3
  %53 = getelementptr inbounds nuw %struct._lv_freetype_outline_event_param_t, ptr %52, i32 0, i32 2
  %54 = getelementptr inbounds nuw %struct._lv_freetype_outline_vector_t, ptr %53, i32 0, i32 0
  %55 = load i32, ptr %54, align 4, !tbaa !14
  %56 = sitofp i32 %55 to float
  %57 = fdiv float %56, 6.400000e+01
  %58 = getelementptr inbounds nuw %struct._lv_fpoint_t, ptr %6, i32 0, i32 0
  store float %57, ptr %58, align 4, !tbaa !15
  %59 = load ptr, ptr %4, align 8, !tbaa !3
  %60 = getelementptr inbounds nuw %struct._lv_freetype_outline_event_param_t, ptr %59, i32 0, i32 2
  %61 = getelementptr inbounds nuw %struct._lv_freetype_outline_vector_t, ptr %60, i32 0, i32 1
  %62 = load i32, ptr %61, align 4, !tbaa !18
  %63 = sitofp i32 %62 to float
  %64 = fdiv float %63, 6.400000e+01
  %65 = fneg float %64
  %66 = getelementptr inbounds nuw %struct._lv_fpoint_t, ptr %6, i32 0, i32 1
  store float %65, ptr %66, align 4, !tbaa !19
  %67 = load ptr, ptr %4, align 8, !tbaa !3
  %68 = getelementptr inbounds nuw %struct._lv_freetype_outline_event_param_t, ptr %67, i32 0, i32 0
  %69 = load ptr, ptr %68, align 8, !tbaa !10
  call void @lv_vector_path_line_to(ptr noundef %69, ptr noundef %6)
  call void @llvm.lifetime.end.p0(i64 8, ptr %6) #8
  br label %190

70:                                               ; preds = %46
  %71 = load ptr, ptr %4, align 8, !tbaa !3
  %72 = getelementptr inbounds nuw %struct._lv_freetype_outline_event_param_t, ptr %71, i32 0, i32 1
  %73 = load i32, ptr %72, align 8, !tbaa !13
  %74 = icmp eq i32 %73, 3
  br i1 %74, label %75, label %133

75:                                               ; preds = %70
  call void @llvm.lifetime.start.p0(i64 24, ptr %7) #8
  call void @llvm.memset.p0.i64(ptr align 16 %7, i8 0, i64 24, i1 false)
  %76 = load ptr, ptr %4, align 8, !tbaa !3
  %77 = getelementptr inbounds nuw %struct._lv_freetype_outline_event_param_t, ptr %76, i32 0, i32 3
  %78 = getelementptr inbounds nuw %struct._lv_freetype_outline_vector_t, ptr %77, i32 0, i32 0
  %79 = load i32, ptr %78, align 4, !tbaa !20
  %80 = sitofp i32 %79 to float
  %81 = fdiv float %80, 6.400000e+01
  %82 = getelementptr inbounds [3 x %struct._lv_fpoint_t], ptr %7, i64 0, i64 0
  %83 = getelementptr inbounds nuw %struct._lv_fpoint_t, ptr %82, i32 0, i32 0
  store float %81, ptr %83, align 16, !tbaa !15
  %84 = load ptr, ptr %4, align 8, !tbaa !3
  %85 = getelementptr inbounds nuw %struct._lv_freetype_outline_event_param_t, ptr %84, i32 0, i32 3
  %86 = getelementptr inbounds nuw %struct._lv_freetype_outline_vector_t, ptr %85, i32 0, i32 1
  %87 = load i32, ptr %86, align 4, !tbaa !21
  %88 = sitofp i32 %87 to float
  %89 = fdiv float %88, 6.400000e+01
  %90 = fneg float %89
  %91 = getelementptr inbounds [3 x %struct._lv_fpoint_t], ptr %7, i64 0, i64 0
  %92 = getelementptr inbounds nuw %struct._lv_fpoint_t, ptr %91, i32 0, i32 1
  store float %90, ptr %92, align 4, !tbaa !19
  %93 = load ptr, ptr %4, align 8, !tbaa !3
  %94 = getelementptr inbounds nuw %struct._lv_freetype_outline_event_param_t, ptr %93, i32 0, i32 4
  %95 = getelementptr inbounds nuw %struct._lv_freetype_outline_vector_t, ptr %94, i32 0, i32 0
  %96 = load i32, ptr %95, align 4, !tbaa !22
  %97 = sitofp i32 %96 to float
  %98 = fdiv float %97, 6.400000e+01
  %99 = getelementptr inbounds [3 x %struct._lv_fpoint_t], ptr %7, i64 0, i64 1
  %100 = getelementptr inbounds nuw %struct._lv_fpoint_t, ptr %99, i32 0, i32 0
  store float %98, ptr %100, align 8, !tbaa !15
  %101 = load ptr, ptr %4, align 8, !tbaa !3
  %102 = getelementptr inbounds nuw %struct._lv_freetype_outline_event_param_t, ptr %101, i32 0, i32 4
  %103 = getelementptr inbounds nuw %struct._lv_freetype_outline_vector_t, ptr %102, i32 0, i32 1
  %104 = load i32, ptr %103, align 4, !tbaa !23
  %105 = sitofp i32 %104 to float
  %106 = fdiv float %105, 6.400000e+01
  %107 = fneg float %106
  %108 = getelementptr inbounds [3 x %struct._lv_fpoint_t], ptr %7, i64 0, i64 1
  %109 = getelementptr inbounds nuw %struct._lv_fpoint_t, ptr %108, i32 0, i32 1
  store float %107, ptr %109, align 4, !tbaa !19
  %110 = load ptr, ptr %4, align 8, !tbaa !3
  %111 = getelementptr inbounds nuw %struct._lv_freetype_outline_event_param_t, ptr %110, i32 0, i32 2
  %112 = getelementptr inbounds nuw %struct._lv_freetype_outline_vector_t, ptr %111, i32 0, i32 0
  %113 = load i32, ptr %112, align 4, !tbaa !14
  %114 = sitofp i32 %113 to float
  %115 = fdiv float %114, 6.400000e+01
  %116 = getelementptr inbounds [3 x %struct._lv_fpoint_t], ptr %7, i64 0, i64 2
  %117 = getelementptr inbounds nuw %struct._lv_fpoint_t, ptr %116, i32 0, i32 0
  store float %115, ptr %117, align 16, !tbaa !15
  %118 = load ptr, ptr %4, align 8, !tbaa !3
  %119 = getelementptr inbounds nuw %struct._lv_freetype_outline_event_param_t, ptr %118, i32 0, i32 2
  %120 = getelementptr inbounds nuw %struct._lv_freetype_outline_vector_t, ptr %119, i32 0, i32 1
  %121 = load i32, ptr %120, align 4, !tbaa !18
  %122 = sitofp i32 %121 to float
  %123 = fdiv float %122, 6.400000e+01
  %124 = fneg float %123
  %125 = getelementptr inbounds [3 x %struct._lv_fpoint_t], ptr %7, i64 0, i64 2
  %126 = getelementptr inbounds nuw %struct._lv_fpoint_t, ptr %125, i32 0, i32 1
  store float %124, ptr %126, align 4, !tbaa !19
  %127 = load ptr, ptr %4, align 8, !tbaa !3
  %128 = getelementptr inbounds nuw %struct._lv_freetype_outline_event_param_t, ptr %127, i32 0, i32 0
  %129 = load ptr, ptr %128, align 8, !tbaa !10
  %130 = getelementptr inbounds [3 x %struct._lv_fpoint_t], ptr %7, i64 0, i64 0
  %131 = getelementptr inbounds [3 x %struct._lv_fpoint_t], ptr %7, i64 0, i64 1
  %132 = getelementptr inbounds [3 x %struct._lv_fpoint_t], ptr %7, i64 0, i64 2
  call void @lv_vector_path_cubic_to(ptr noundef %129, ptr noundef %130, ptr noundef %131, ptr noundef %132)
  call void @llvm.lifetime.end.p0(i64 24, ptr %7) #8
  br label %189

133:                                              ; preds = %70
  %134 = load ptr, ptr %4, align 8, !tbaa !3
  %135 = getelementptr inbounds nuw %struct._lv_freetype_outline_event_param_t, ptr %134, i32 0, i32 1
  %136 = load i32, ptr %135, align 8, !tbaa !13
  %137 = icmp eq i32 %136, 4
  br i1 %137, label %138, label %178

138:                                              ; preds = %133
  call void @llvm.lifetime.start.p0(i64 16, ptr %8) #8
  call void @llvm.memset.p0.i64(ptr align 16 %8, i8 0, i64 16, i1 false)
  %139 = load ptr, ptr %4, align 8, !tbaa !3
  %140 = getelementptr inbounds nuw %struct._lv_freetype_outline_event_param_t, ptr %139, i32 0, i32 3
  %141 = getelementptr inbounds nuw %struct._lv_freetype_outline_vector_t, ptr %140, i32 0, i32 0
  %142 = load i32, ptr %141, align 4, !tbaa !20
  %143 = sitofp i32 %142 to float
  %144 = fdiv float %143, 6.400000e+01
  %145 = getelementptr inbounds [2 x %struct._lv_fpoint_t], ptr %8, i64 0, i64 0
  %146 = getelementptr inbounds nuw %struct._lv_fpoint_t, ptr %145, i32 0, i32 0
  store float %144, ptr %146, align 16, !tbaa !15
  %147 = load ptr, ptr %4, align 8, !tbaa !3
  %148 = getelementptr inbounds nuw %struct._lv_freetype_outline_event_param_t, ptr %147, i32 0, i32 3
  %149 = getelementptr inbounds nuw %struct._lv_freetype_outline_vector_t, ptr %148, i32 0, i32 1
  %150 = load i32, ptr %149, align 4, !tbaa !21
  %151 = sitofp i32 %150 to float
  %152 = fdiv float %151, 6.400000e+01
  %153 = fneg float %152
  %154 = getelementptr inbounds [2 x %struct._lv_fpoint_t], ptr %8, i64 0, i64 0
  %155 = getelementptr inbounds nuw %struct._lv_fpoint_t, ptr %154, i32 0, i32 1
  store float %153, ptr %155, align 4, !tbaa !19
  %156 = load ptr, ptr %4, align 8, !tbaa !3
  %157 = getelementptr inbounds nuw %struct._lv_freetype_outline_event_param_t, ptr %156, i32 0, i32 2
  %158 = getelementptr inbounds nuw %struct._lv_freetype_outline_vector_t, ptr %157, i32 0, i32 0
  %159 = load i32, ptr %158, align 4, !tbaa !14
  %160 = sitofp i32 %159 to float
  %161 = fdiv float %160, 6.400000e+01
  %162 = getelementptr inbounds [2 x %struct._lv_fpoint_t], ptr %8, i64 0, i64 1
  %163 = getelementptr inbounds nuw %struct._lv_fpoint_t, ptr %162, i32 0, i32 0
  store float %161, ptr %163, align 8, !tbaa !15
  %164 = load ptr, ptr %4, align 8, !tbaa !3
  %165 = getelementptr inbounds nuw %struct._lv_freetype_outline_event_param_t, ptr %164, i32 0, i32 2
  %166 = getelementptr inbounds nuw %struct._lv_freetype_outline_vector_t, ptr %165, i32 0, i32 1
  %167 = load i32, ptr %166, align 4, !tbaa !18
  %168 = sitofp i32 %167 to float
  %169 = fdiv float %168, 6.400000e+01
  %170 = fneg float %169
  %171 = getelementptr inbounds [2 x %struct._lv_fpoint_t], ptr %8, i64 0, i64 1
  %172 = getelementptr inbounds nuw %struct._lv_fpoint_t, ptr %171, i32 0, i32 1
  store float %170, ptr %172, align 4, !tbaa !19
  %173 = load ptr, ptr %4, align 8, !tbaa !3
  %174 = getelementptr inbounds nuw %struct._lv_freetype_outline_event_param_t, ptr %173, i32 0, i32 0
  %175 = load ptr, ptr %174, align 8, !tbaa !10
  %176 = getelementptr inbounds [2 x %struct._lv_fpoint_t], ptr %8, i64 0, i64 0
  %177 = getelementptr inbounds [2 x %struct._lv_fpoint_t], ptr %8, i64 0, i64 1
  call void @lv_vector_path_quad_to(ptr noundef %175, ptr noundef %176, ptr noundef %177)
  call void @llvm.lifetime.end.p0(i64 16, ptr %8) #8
  br label %188

178:                                              ; preds = %133
  %179 = load ptr, ptr %4, align 8, !tbaa !3
  %180 = getelementptr inbounds nuw %struct._lv_freetype_outline_event_param_t, ptr %179, i32 0, i32 1
  %181 = load i32, ptr %180, align 8, !tbaa !13
  %182 = icmp eq i32 %181, 0
  br i1 %182, label %183, label %187

183:                                              ; preds = %178
  %184 = load ptr, ptr %4, align 8, !tbaa !3
  %185 = getelementptr inbounds nuw %struct._lv_freetype_outline_event_param_t, ptr %184, i32 0, i32 0
  %186 = load ptr, ptr %185, align 8, !tbaa !10
  call void @lv_vector_path_close(ptr noundef %186)
  br label %187

187:                                              ; preds = %183, %178
  br label %188

188:                                              ; preds = %187, %138
  br label %189

189:                                              ; preds = %188, %75
  br label %190

190:                                              ; preds = %189, %51
  br label %191

191:                                              ; preds = %190, %27
  br label %196

192:                                              ; preds = %1
  br label %193

193:                                              ; preds = %192
  br label %194

194:                                              ; preds = %193
  br label %195

195:                                              ; preds = %194
  br label %196

196:                                              ; preds = %195, %191, %18, %14
  call void @llvm.lifetime.end.p0(i64 8, ptr %4) #8
  call void @llvm.lifetime.end.p0(i64 4, ptr %3) #8
  ret void
}