; Function Attrs: nounwind uwtable
define internal void @_freetype_outline_cb(ptr noundef %0) #0 {
  %2 = alloca %struct._lv_fpoint_t, align 4
  %3 = alloca %struct._lv_fpoint_t, align 4
  %4 = alloca [3 x %struct._lv_fpoint_t], align 16
  %5 = alloca [2 x %struct._lv_fpoint_t], align 16
  %6 = tail call i32 @lv_event_get_code(ptr noundef %0) #9
  %7 = tail call ptr @lv_event_get_param(ptr noundef %0) #9
  switch i32 %6, label %91 [
    i32 40, label %8
    i32 41, label %10
    i32 36, label %12
  ]

8:                                                ; preds = %1
  %9 = tail call ptr @lv_vector_path_create(i32 noundef 0) #9
  store ptr %9, ptr %7, align 8, !tbaa !8
  br label %91

10:                                               ; preds = %1
  %11 = load ptr, ptr %7, align 8, !tbaa !8
  tail call void @lv_vector_path_delete(ptr noundef %11) #9
  br label %91

12:                                               ; preds = %1
  %13 = getelementptr inbounds nuw i8, ptr %7, i64 8
  %14 = load i32, ptr %13, align 8, !tbaa !12
  switch i32 %14, label %91 [
    i32 1, label %15
    i32 2, label %26
    i32 3, label %37
    i32 4, label %68
    i32 0, label %89
  ]

15:                                               ; preds = %12
  call void @llvm.lifetime.start.p0(i64 8, ptr nonnull %2) #9
  %16 = getelementptr inbounds nuw i8, ptr %7, i64 12
  %17 = load i32, ptr %16, align 4, !tbaa !13
  %18 = sitofp i32 %17 to float
  %19 = fmul float %18, 1.562500e-02
  store float %19, ptr %2, align 4, !tbaa !14
  %20 = getelementptr inbounds nuw i8, ptr %7, i64 16
  %21 = load i32, ptr %20, align 4, !tbaa !17
  %22 = sitofp i32 %21 to float
  %23 = fmul float %22, -1.562500e-02
  %24 = getelementptr inbounds nuw i8, ptr %2, i64 4
  store float %23, ptr %24, align 4, !tbaa !18
  %25 = load ptr, ptr %7, align 8, !tbaa !8
  call void @lv_vector_path_move_to(ptr noundef %25, ptr noundef nonnull %2) #9
  call void @llvm.lifetime.end.p0(i64 8, ptr nonnull %2) #9
  br label %91

26:                                               ; preds = %12
  call void @llvm.lifetime.start.p0(i64 8, ptr nonnull %3) #9
  %27 = getelementptr inbounds nuw i8, ptr %7, i64 12
  %28 = load i32, ptr %27, align 4, !tbaa !13
  %29 = sitofp i32 %28 to float
  %30 = fmul float %29, 1.562500e-02
  store float %30, ptr %3, align 4, !tbaa !14
  %31 = getelementptr inbounds nuw i8, ptr %7, i64 16
  %32 = load i32, ptr %31, align 4, !tbaa !17
  %33 = sitofp i32 %32 to float
  %34 = fmul float %33, -1.562500e-02
  %35 = getelementptr inbounds nuw i8, ptr %3, i64 4
  store float %34, ptr %35, align 4, !tbaa !18
  %36 = load ptr, ptr %7, align 8, !tbaa !8
  call void @lv_vector_path_line_to(ptr noundef %36, ptr noundef nonnull %3) #9
  call void @llvm.lifetime.end.p0(i64 8, ptr nonnull %3) #9
  br label %91

37:                                               ; preds = %12
  call void @llvm.lifetime.start.p0(i64 24, ptr nonnull %4) #9
  %38 = getelementptr inbounds nuw i8, ptr %7, i64 20
  %39 = load i32, ptr %38, align 4, !tbaa !19
  %40 = sitofp i32 %39 to float
  %41 = fmul float %40, 1.562500e-02
  store float %41, ptr %4, align 16, !tbaa !14
  %42 = getelementptr inbounds nuw i8, ptr %7, i64 24
  %43 = load i32, ptr %42, align 4, !tbaa !20
  %44 = sitofp i32 %43 to float
  %45 = fmul float %44, -1.562500e-02
  %46 = getelementptr inbounds nuw i8, ptr %4, i64 4
  store float %45, ptr %46, align 4, !tbaa !18
  %47 = getelementptr inbounds nuw i8, ptr %7, i64 28
  %48 = load i32, ptr %47, align 4, !tbaa !21
  %49 = sitofp i32 %48 to float
  %50 = fmul float %49, 1.562500e-02
  %51 = getelementptr inbounds i8, ptr %4, i64 8
  store float %50, ptr %51, align 8, !tbaa !14
  %52 = getelementptr inbounds nuw i8, ptr %7, i64 32
  %53 = load i32, ptr %52, align 4, !tbaa !22
  %54 = sitofp i32 %53 to float
  %55 = fmul float %54, -1.562500e-02
  %56 = getelementptr inbounds i8, ptr %4, i64 12
  store float %55, ptr %56, align 4, !tbaa !18
  %57 = getelementptr inbounds nuw i8, ptr %7, i64 12
  %58 = load i32, ptr %57, align 4, !tbaa !13
  %59 = sitofp i32 %58 to float
  %60 = fmul float %59, 1.562500e-02
  %61 = getelementptr inbounds i8, ptr %4, i64 16
  store float %60, ptr %61, align 16, !tbaa !14
  %62 = getelementptr inbounds nuw i8, ptr %7, i64 16
  %63 = load i32, ptr %62, align 4, !tbaa !17
  %64 = sitofp i32 %63 to float
  %65 = fmul float %64, -1.562500e-02
  %66 = getelementptr inbounds i8, ptr %4, i64 20
  store float %65, ptr %66, align 4, !tbaa !18
  %67 = load ptr, ptr %7, align 8, !tbaa !8
  call void @lv_vector_path_cubic_to(ptr noundef %67, ptr noundef nonnull %4, ptr noundef nonnull %51, ptr noundef nonnull %61) #9
  call void @llvm.lifetime.end.p0(i64 24, ptr nonnull %4) #9
  br label %91

68:                                               ; preds = %12
  call void @llvm.lifetime.start.p0(i64 16, ptr nonnull %5) #9
  %69 = getelementptr inbounds nuw i8, ptr %7, i64 20
  %70 = load i32, ptr %69, align 4, !tbaa !19
  %71 = sitofp i32 %70 to float
  %72 = fmul float %71, 1.562500e-02
  store float %72, ptr %5, align 16, !tbaa !14
  %73 = getelementptr inbounds nuw i8, ptr %7, i64 24
  %74 = load i32, ptr %73, align 4, !tbaa !20
  %75 = sitofp i32 %74 to float
  %76 = fmul float %75, -1.562500e-02
  %77 = getelementptr inbounds nuw i8, ptr %5, i64 4
  store float %76, ptr %77, align 4, !tbaa !18
  %78 = getelementptr inbounds nuw i8, ptr %7, i64 12
  %79 = load i32, ptr %78, align 4, !tbaa !13
  %80 = sitofp i32 %79 to float
  %81 = fmul float %80, 1.562500e-02
  %82 = getelementptr inbounds i8, ptr %5, i64 8
  store float %81, ptr %82, align 8, !tbaa !14
  %83 = getelementptr inbounds nuw i8, ptr %7, i64 16
  %84 = load i32, ptr %83, align 4, !tbaa !17
  %85 = sitofp i32 %84 to float
  %86 = fmul float %85, -1.562500e-02
  %87 = getelementptr inbounds i8, ptr %5, i64 12
  store float %86, ptr %87, align 4, !tbaa !18
  %88 = load ptr, ptr %7, align 8, !tbaa !8
  call void @lv_vector_path_quad_to(ptr noundef %88, ptr noundef nonnull %5, ptr noundef nonnull %82) #9
  call void @llvm.lifetime.end.p0(i64 16, ptr nonnull %5) #9
  br label %91

89:                                               ; preds = %12
  %90 = load ptr, ptr %7, align 8, !tbaa !8
  tail call void @lv_vector_path_close(ptr noundef %90) #9
  br label %91

91:                                               ; preds = %12, %1, %15, %37, %89, %68, %26, %10, %8
  ret void
}